; Function Attrs: mustprogress uwtable
define void @_ZN5Ipopt14CompoundVector7SetImplEd(ptr noundef nonnull readonly align 8 captures(none) dereferenceable(265) %0, double noundef %1) unnamed_addr #0 align 2 {
  %3 = getelementptr inbounds nuw i8, ptr %0, i64 256
  %4 = load ptr, ptr %3, align 8, !tbaa !60
  %5 = getelementptr inbounds nuw i8, ptr %4, i64 16
  %6 = load i32, ptr %5, align 8, !tbaa !37
  %7 = icmp sgt i32 %6, 0
  br i1 %7, label %.lr.ph, label %._crit_edge

.lr.ph:                                           ; preds = %2
  %8 = getelementptr inbounds nuw i8, ptr %0, i64 208
  br label %9

._crit_edge:                                      ; preds = %9, %2
  ret void

9:                                                ; preds = %.lr.ph, %9
  %indvars.iv = phi i64 [ 0, %.lr.ph ], [ %indvars.iv.next, %9 ]
  %10 = load ptr, ptr %8, align 8, !tbaa !45
  %11 = getelementptr inbounds nuw %"class.Ipopt::SmartPtr.15", ptr %10, i64 %indvars.iv
  %12 = load ptr, ptr %11, align 8, !tbaa !48
  %13 = load ptr, ptr %12, align 8, !tbaa !8
  %14 = getelementptr inbounds nuw i8, ptr %13, i64 72
  %15 = load ptr, ptr %14, align 8
  tail call void %15(ptr noundef nonnull align 8 dereferenceable(205) %12, double noundef %1)
  tail call void @_ZN5Ipopt12TaggedObject13ObjectChangedEv(ptr noundef nonnull align 8 dereferenceable(205) %12)
  %indvars.iv.next = add nuw nsw i64 %indvars.iv, 1
  %16 = load ptr, ptr %3, align 8, !tbaa !60
  %17 = getelementptr inbounds nuw i8, ptr %16, i64 16
  %18 = load i32, ptr %17, align 8, !tbaa !37
  %19 = sext i32 %18 to i64
  %20 = icmp slt i64 %indvars.iv.next, %19
  br i1 %20, label %9, label %._crit_edge, !llvm.loop !112
}